target datalayout = "e-m:e-p270:32:32-p271:32:32-p272:64:64-i64:64-i128:128-f80:128-n8:16:32:64-S128"
target triple = "x86_64-pc-linux-gnu"

%struct.expert_field = type { i32, i32 }

@hf_iuup_payload_crc = internal global i32 0, align 4
@ei_iuup_payload_crc_bad = internal global %struct.expert_field zeroinitializer, align 4
@.str.2765 = private unnamed_addr constant [3 x i8] c"%s\00", align 1
@.str.2766 = private unnamed_addr constant [13 x i8] c" [incorrect]\00", align 1

; Function Attrs: null_pointer_is_valid sspstrong uwtable
define internal zeroext i16 @update_crc10_by_bytes_iuup(ptr noundef %0, i32 noundef %1, i32 noundef %2) #0 {
  %4 = alloca ptr, align 8
  %5 = alloca i32, align 4
  %6 = alloca i32, align 4
  %7 = alloca i16, align 2
  %8 = alloca i16, align 2
  %9 = alloca [2 x i8], align 1
  store ptr %0, ptr %4, align 8
  store i32 %1, ptr %5, align 4
  store i32 %2, ptr %6, align 4
  call void @llvm.lifetime.start.p0(i64 2, ptr %7) #8
  call void @llvm.lifetime.start.p0(i64 2, ptr %8) #8
  call void @llvm.lifetime.start.p0(i64 2, ptr %9) #8
  %10 = load ptr, ptr %4, align 8
  %11 = load i32, ptr %5, align 4
  %12 = add i32 %11, 2
  %13 = load i32, ptr %6, align 4
  %14 = call zeroext i16 @update_crc10_by_bytes_tvb(i16 noundef zeroext 0, ptr noundef %10, i32 noundef %12, i32 noundef %13)
  store i16 %14, ptr %7, align 2
  %15 = load ptr, ptr %4, align 8
  %16 = load i32, ptr %5, align 4
  %17 = call zeroext i16 @tvb_get_ntohs(ptr noundef %15, i32 noundef %16)
  %18 = zext i16 %17 to i32
  %19 = and i32 %18, 1023
  %20 = trunc i32 %19 to i16
  store i16 %20, ptr %8, align 2
  %21 = load i16, ptr %8, align 2
  %22 = zext i16 %21 to i32
  %23 = ashr i32 %22, 2
  %24 = trunc i32 %23 to i8
  %25 = getelementptr [2 x i8], ptr %9, i64 0, i64 0
  store i8 %24, ptr %25, align 1
  %26 = load i16, ptr %8, align 2
  %27 = zext i16 %26 to i32
  %28 = shl i32 %27, 6
  %29 = and i32 %28, 255
  %30 = trunc i32 %29 to i8
  %31 = getelementptr [2 x i8], ptr %9, i64 0, i64 1
  store i8 %30, ptr %31, align 1
  %32 = load i16, ptr %7, align 2
  %33 = getelementptr inbounds [2 x i8], ptr %9, i64 0, i64 0
  %34 = call zeroext i16 @update_crc10_by_bytes(i16 noundef zeroext %32, ptr noundef %33, i32 noundef 2)
  store i16 %34, ptr %7, align 2
  %35 = load i16, ptr %7, align 2
  call void @llvm.lifetime.end.p0(i64 2, ptr %9) #8
  call void @llvm.lifetime.end.p0(i64 2, ptr %8) #8
  call void @llvm.lifetime.end.p0(i64 2, ptr %7) #8
  ret i16 %35
}

; Function Attrs: null_pointer_is_valid sspstrong uwtable
define internal void @add_payload_crc(ptr noundef %0, ptr noundef %1, ptr noundef %2) #0 {
  %4 = alloca ptr, align 8
  %5 = alloca ptr, align 8
  %6 = alloca ptr, align 8
  %7 = alloca ptr, align 8
  %8 = alloca i32, align 4
  %9 = alloca i16, align 2
  store ptr %0, ptr %4, align 8
  store ptr %1, ptr %5, align 8
  store ptr %2, ptr %6, align 8
  call void @llvm.lifetime.start.p0(i64 8, ptr %7) #8
  call void @llvm.lifetime.start.p0(i64 4, ptr %8) #8
  %10 = load ptr, ptr %4, align 8
  %11 = call i32 @tvb_reported_length(ptr noundef %10)
  store i32 %11, ptr %8, align 4
  call void @llvm.lifetime.start.p0(i64 2, ptr %9) #8
  %12 = load ptr, ptr %4, align 8
  %13 = load i32, ptr %8, align 4
  %14 = sub i32 %13, 4
  %15 = call zeroext i16 @update_crc10_by_bytes_iuup(ptr noundef %12, i32 noundef 2, i32 noundef %14)
  store i16 %15, ptr %9, align 2
  %16 = load ptr, ptr %6, align 8
  %17 = load i32, ptr @hf_iuup_payload_crc, align 4
  %18 = load ptr, ptr %4, align 8
  %19 = call ptr @proto_tree_add_item(ptr noundef %16, i32 noundef %17, ptr noundef %18, i32 noundef 2, i32 noundef 2, i32 noundef 0)
  store ptr %19, ptr %7, align 8
  %20 = load i16, ptr %9, align 2
  %21 = icmp ne i16 %20, 0
  br i1 %21, label %22, label %27

22:                                               ; preds = %3
  %23 = load ptr, ptr %7, align 8
  call void (ptr, ptr, ...) @proto_item_append_text(ptr noundef %23, ptr noundef @.str.2765, ptr noundef @.str.2766)
  %24 = load ptr, ptr %5, align 8
  %25 = load ptr, ptr %7, align 8
  %26 = call ptr @expert_add_info(ptr noundef %24, ptr noundef %25, ptr noundef @ei_iuup_payload_crc_bad)
  br label %27

27:                                               ; preds = %22, %3
  call void @llvm.lifetime.end.p0(i64 2, ptr %9) #8
  call void @llvm.lifetime.end.p0(i64 4, ptr %8) #8
  call void @llvm.lifetime.end.p0(i64 8, ptr %7) #8
  ret void
}