; Function Attrs: null_pointer_is_valid sspstrong uwtable
define internal fastcc void @add_payload_crc(ptr noundef %0, ptr noundef %1, ptr noundef %2) unnamed_addr #0 {
  %4 = alloca [2 x i8], align 1
  %5 = tail call i32 @tvb_reported_length(ptr noundef %0)
  %6 = add i32 %5, -4
  call void @llvm.lifetime.start.p0(i64 2, ptr nonnull %4) #9
  %7 = tail call zeroext i16 @update_crc10_by_bytes_tvb(i16 noundef zeroext 0, ptr noundef %0, i32 noundef 4, i32 noundef %6)
  %8 = tail call zeroext i16 @tvb_get_ntohs(ptr noundef %0, i32 noundef 2)
  %9 = lshr i16 %8, 2
  %10 = trunc i16 %9 to i8
  store i8 %10, ptr %4, align 1
  %.tr.i = trunc i16 %8 to i8
  %11 = shl i8 %.tr.i, 6
  %12 = getelementptr inbounds nuw i8, ptr %4, i64 1
  store i8 %11, ptr %12, align 1
  %13 = call zeroext i16 @update_crc10_by_bytes(i16 noundef zeroext %7, ptr noundef nonnull %4, i32 noundef 2)
  call void @llvm.lifetime.end.p0(i64 2, ptr nonnull %4) #9
  %14 = load i32, ptr @hf_iuup_payload_crc, align 4
  %15 = call ptr @proto_tree_add_item(ptr noundef %2, i32 noundef %14, ptr noundef %0, i32 noundef 2, i32 noundef 2, i32 noundef 0)
  %.not = icmp eq i16 %13, 0
  br i1 %.not, label %18, label %16

16:                                               ; preds = %3
  call void (ptr, ptr, ...) @proto_item_append_text(ptr noundef %15, ptr noundef nonnull @.str.2765, ptr noundef nonnull @.str.2766)
  %17 = call ptr @expert_add_info(ptr noundef %1, ptr noundef %15, ptr noundef nonnull @ei_iuup_payload_crc_bad)
  br label %18

18:                                               ; preds = %16, %3
  ret void
}